target datalayout = "e-m:e-p270:32:32-p271:32:32-p272:64:64-i64:64-i128:128-f80:128-n8:16:32:64-S128"
target triple = "x86_64-pc-linux-gnu"

%"union.absl::lts_20240722::internal_any_invocable::TypeErasedState" = type { %struct.anon }
%struct.anon = type { ptr, i64 }
%"class.grpc_core::ChannelInit::Builder" = type { [6 x %"class.std::vector.9"], [6 x [2 x %"class.absl::lts_20240722::AnyInvocable.14"]] }
%"class.std::vector.9" = type { %"struct.std::_Vector_base.10" }
%"struct.std::_Vector_base.10" = type { %"struct.std::_Vector_base<std::unique_ptr<grpc_core::ChannelInit::FilterRegistration>, std::allocator<std::unique_ptr<grpc_core::ChannelInit::FilterRegistration>>>::_Vector_impl" }
%"struct.std::_Vector_base<std::unique_ptr<grpc_core::ChannelInit::FilterRegistration>, std::allocator<std::unique_ptr<grpc_core::ChannelInit::FilterRegistration>>>::_Vector_impl" = type { %"struct.std::_Vector_base<std::unique_ptr<grpc_core::ChannelInit::FilterRegistration>, std::allocator<std::unique_ptr<grpc_core::ChannelInit::FilterRegistration>>>::_Vector_impl_data" }
%"struct.std::_Vector_base<std::unique_ptr<grpc_core::ChannelInit::FilterRegistration>, std::allocator<std::unique_ptr<grpc_core::ChannelInit::FilterRegistration>>>::_Vector_impl_data" = type { ptr, ptr, ptr }
%"class.absl::lts_20240722::AnyInvocable.14" = type { %"class.absl::lts_20240722::internal_any_invocable::Impl.15" }
%"class.absl::lts_20240722::internal_any_invocable::Impl.15" = type { %"class.absl::lts_20240722::internal_any_invocable::CoreImpl.16" }
%"class.absl::lts_20240722::internal_any_invocable::CoreImpl.16" = type { %"union.absl::lts_20240722::internal_any_invocable::TypeErasedState", ptr, ptr }
%"struct.grpc_core::ChannelInit::StackConfig" = type { %"class.std::vector.19", %"class.std::vector.19", %"class.std::vector.24" }
%"class.std::vector.19" = type { %"struct.std::_Vector_base.20" }
%"struct.std::_Vector_base.20" = type { %"struct.std::_Vector_base<grpc_core::ChannelInit::Filter, std::allocator<grpc_core::ChannelInit::Filter>>::_Vector_impl" }
%"struct.std::_Vector_base<grpc_core::ChannelInit::Filter, std::allocator<grpc_core::ChannelInit::Filter>>::_Vector_impl" = type { %"struct.std::_Vector_base<grpc_core::ChannelInit::Filter, std::allocator<grpc_core::ChannelInit::Filter>>::_Vector_impl_data" }
%"struct.std::_Vector_base<grpc_core::ChannelInit::Filter, std::allocator<grpc_core::ChannelInit::Filter>>::_Vector_impl_data" = type { ptr, ptr, ptr }
%"class.std::vector.24" = type { %"struct.std::_Vector_base.25" }
%"struct.std::_Vector_base.25" = type { %"struct.std::_Vector_base<absl::lts_20240722::AnyInvocable<void (grpc_core::ChannelStackBuilder &) const>, std::allocator<absl::lts_20240722::AnyInvocable<void (grpc_core::ChannelStackBuilder &) const>>>::_Vector_impl" }
%"struct.std::_Vector_base<absl::lts_20240722::AnyInvocable<void (grpc_core::ChannelStackBuilder &) const>, std::allocator<absl::lts_20240722::AnyInvocable<void (grpc_core::ChannelStackBuilder &) const>>>::_Vector_impl" = type { %"struct.std::_Vector_base<absl::lts_20240722::AnyInvocable<void (grpc_core::ChannelStackBuilder &) const>, std::allocator<absl::lts_20240722::AnyInvocable<void (grpc_core::ChannelStackBuilder &) const>>>::_Vector_impl_data" }
%"struct.std::_Vector_base<absl::lts_20240722::AnyInvocable<void (grpc_core::ChannelStackBuilder &) const>, std::allocator<absl::lts_20240722::AnyInvocable<void (grpc_core::ChannelStackBuilder &) const>>>::_Vector_impl_data" = type { ptr, ptr, ptr }
%"class.grpc_core::ChannelInit" = type { [6 x %"struct.grpc_core::ChannelInit::StackConfig"] }

; Function Attrs: mustprogress nounwind uwtable
define linkonce_odr void @_ZNSt15__new_allocatorIN4absl12lts_2024072212AnyInvocableIKFvRN9grpc_core19ChannelStackBuilderEEEEEC2Ev(ptr noundef nonnull align 1 dereferenceable(1) %0) unnamed_addr #6 comdat align 2 {
  %2 = alloca ptr, align 8
  store ptr %0, ptr %2, align 8, !tbaa !583
  ret void
}

; Function Attrs: mustprogress nounwind uwtable
define linkonce_odr void @_ZNSt15__new_allocatorIN9grpc_core11ChannelInit6FilterEEC2Ev(ptr noundef nonnull align 1 dereferenceable(1) %0) unnamed_addr #6 comdat align 2 {
  %2 = alloca ptr, align 8
  store ptr %0, ptr %2, align 8, !tbaa !392
  ret void
}

; Function Attrs: mustprogress nounwind uwtable
define linkonce_odr void @_ZNSt12_Vector_baseIN4absl12lts_2024072212AnyInvocableIKFvRN9grpc_core19ChannelStackBuilderEEEESaIS7_EE17_Vector_impl_dataC2Ev(ptr noundef nonnull align 8 dereferenceable(24) %0) unnamed_addr #6 comdat align 2 {
  %2 = alloca ptr, align 8
  store ptr %0, ptr %2, align 8, !tbaa !595
  %3 = load ptr, ptr %2, align 8
  %4 = getelementptr inbounds nuw %"struct.std::_Vector_base<absl::lts_20240722::AnyInvocable<void (grpc_core::ChannelStackBuilder &) const>, std::allocator<absl::lts_20240722::AnyInvocable<void (grpc_core::ChannelStackBuilder &) const>>>::_Vector_impl_data", ptr %3, i32 0, i32 0
  store ptr null, ptr %4, align 8, !tbaa !175
  %5 = getelementptr inbounds nuw %"struct.std::_Vector_base<absl::lts_20240722::AnyInvocable<void (grpc_core::ChannelStackBuilder &) const>, std::allocator<absl::lts_20240722::AnyInvocable<void (grpc_core::ChannelStackBuilder &) const>>>::_Vector_impl_data", ptr %3, i32 0, i32 1
  store ptr null, ptr %5, align 8, !tbaa !158
  %6 = getelementptr inbounds nuw %"struct.std::_Vector_base<absl::lts_20240722::AnyInvocable<void (grpc_core::ChannelStackBuilder &) const>, std::allocator<absl::lts_20240722::AnyInvocable<void (grpc_core::ChannelStackBuilder &) const>>>::_Vector_impl_data", ptr %3, i32 0, i32 2
  store ptr null, ptr %6, align 8, !tbaa !160
  ret void
}

; Function Attrs: mustprogress nounwind uwtable
define linkonce_odr void @_ZNSaIN4absl12lts_2024072212AnyInvocableIKFvRN9grpc_core19ChannelStackBuilderEEEEEC2Ev(ptr noundef nonnull align 1 dereferenceable(1) %0) unnamed_addr #6 comdat align 2 {
  %2 = alloca ptr, align 8
  store ptr %0, ptr %2, align 8, !tbaa !581
  %3 = load ptr, ptr %2, align 8
  call void @_ZNSt15__new_allocatorIN4absl12lts_2024072212AnyInvocableIKFvRN9grpc_core19ChannelStackBuilderEEEEEC2Ev(ptr noundef nonnull align 1 dereferenceable(1) %3) #3
  ret void
}

; Function Attrs: mustprogress nounwind uwtable
define linkonce_odr void @_ZNSt12_Vector_baseIN9grpc_core11ChannelInit6FilterESaIS2_EE17_Vector_impl_dataC2Ev(ptr noundef nonnull align 8 dereferenceable(24) %0) unnamed_addr #6 comdat align 2 {
  %2 = alloca ptr, align 8
  store ptr %0, ptr %2, align 8, !tbaa !593
  %3 = load ptr, ptr %2, align 8
  %4 = getelementptr inbounds nuw %"struct.std::_Vector_base<grpc_core::ChannelInit::Filter, std::allocator<grpc_core::ChannelInit::Filter>>::_Vector_impl_data", ptr %3, i32 0, i32 0
  store ptr null, ptr %4, align 8, !tbaa !176
  %5 = getelementptr inbounds nuw %"struct.std::_Vector_base<grpc_core::ChannelInit::Filter, std::allocator<grpc_core::ChannelInit::Filter>>::_Vector_impl_data", ptr %3, i32 0, i32 1
  store ptr null, ptr %5, align 8, !tbaa !127
  %6 = getelementptr inbounds nuw %"struct.std::_Vector_base<grpc_core::ChannelInit::Filter, std::allocator<grpc_core::ChannelInit::Filter>>::_Vector_impl_data", ptr %3, i32 0, i32 2
  store ptr null, ptr %6, align 8, !tbaa !130
  ret void
}

; Function Attrs: mustprogress nounwind uwtable
define linkonce_odr void @_ZNSaIN9grpc_core11ChannelInit6FilterEEC2Ev(ptr noundef nonnull align 1 dereferenceable(1) %0) unnamed_addr #6 comdat align 2 {
  %2 = alloca ptr, align 8
  store ptr %0, ptr %2, align 8, !tbaa !390
  %3 = load ptr, ptr %2, align 8
  call void @_ZNSt15__new_allocatorIN9grpc_core11ChannelInit6FilterEEC2Ev(ptr noundef nonnull align 1 dereferenceable(1) %3) #3
  ret void
}

; Function Attrs: mustprogress nounwind uwtable
define linkonce_odr void @_ZNSt12_Vector_baseIN4absl12lts_2024072212AnyInvocableIKFvRN9grpc_core19ChannelStackBuilderEEEESaIS7_EE12_Vector_implC2Ev(ptr noundef nonnull align 8 dereferenceable(24) %0) unnamed_addr #6 comdat align 2 {
  %2 = alloca ptr, align 8
  store ptr %0, ptr %2, align 8, !tbaa !579
  %3 = load ptr, ptr %2, align 8
  call void @_ZNSaIN4absl12lts_2024072212AnyInvocableIKFvRN9grpc_core19ChannelStackBuilderEEEEEC2Ev(ptr noundef nonnull align 1 dereferenceable(1) %3) #3
  call void @_ZNSt12_Vector_baseIN4absl12lts_2024072212AnyInvocableIKFvRN9grpc_core19ChannelStackBuilderEEEESaIS7_EE17_Vector_impl_dataC2Ev(ptr noundef nonnull align 8 dereferenceable(24) %3) #3
  ret void
}

; Function Attrs: mustprogress nounwind uwtable
define linkonce_odr void @_ZNSt12_Vector_baseIN9grpc_core11ChannelInit6FilterESaIS2_EE12_Vector_implC2Ev(ptr noundef nonnull align 8 dereferenceable(24) %0) unnamed_addr #6 comdat align 2 {
  %2 = alloca ptr, align 8
  store ptr %0, ptr %2, align 8, !tbaa !388
  %3 = load ptr, ptr %2, align 8
  call void @_ZNSaIN9grpc_core11ChannelInit6FilterEEC2Ev(ptr noundef nonnull align 1 dereferenceable(1) %3) #3
  call void @_ZNSt12_Vector_baseIN9grpc_core11ChannelInit6FilterESaIS2_EE17_Vector_impl_dataC2Ev(ptr noundef nonnull align 8 dereferenceable(24) %3) #3
  ret void
}

; Function Attrs: mustprogress nounwind uwtable
define linkonce_odr void @_ZNSt12_Vector_baseIN4absl12lts_2024072212AnyInvocableIKFvRN9grpc_core19ChannelStackBuilderEEEESaIS7_EEC2Ev(ptr noundef nonnull align 8 dereferenceable(24) %0) unnamed_addr #6 comdat align 2 {
  %2 = alloca ptr, align 8
  store ptr %0, ptr %2, align 8, !tbaa !577
  %3 = load ptr, ptr %2, align 8
  %4 = getelementptr inbounds nuw %"struct.std::_Vector_base.25", ptr %3, i32 0, i32 0
  call void @_ZNSt12_Vector_baseIN4absl12lts_2024072212AnyInvocableIKFvRN9grpc_core19ChannelStackBuilderEEEESaIS7_EE12_Vector_implC2Ev(ptr noundef nonnull align 8 dereferenceable(24) %4) #3
  ret void
}

; Function Attrs: mustprogress nounwind uwtable
define linkonce_odr void @_ZNSt12_Vector_baseIN9grpc_core11ChannelInit6FilterESaIS2_EEC2Ev(ptr noundef nonnull align 8 dereferenceable(24) %0) unnamed_addr #6 comdat align 2 {
  %2 = alloca ptr, align 8
  store ptr %0, ptr %2, align 8, !tbaa !386
  %3 = load ptr, ptr %2, align 8
  %4 = getelementptr inbounds nuw %"struct.std::_Vector_base.20", ptr %3, i32 0, i32 0
  call void @_ZNSt12_Vector_baseIN9grpc_core11ChannelInit6FilterESaIS2_EE12_Vector_implC2Ev(ptr noundef nonnull align 8 dereferenceable(24) %4) #3
  ret void
}

; Function Attrs: mustprogress nounwind uwtable
define linkonce_odr void @_ZNSt6vectorIN4absl12lts_2024072212AnyInvocableIKFvRN9grpc_core19ChannelStackBuilderEEEESaIS7_EEC2Ev(ptr noundef nonnull align 8 dereferenceable(24) %0) unnamed_addr #6 comdat align 2 {
  %2 = alloca ptr, align 8
  store ptr %0, ptr %2, align 8, !tbaa !156
  %3 = load ptr, ptr %2, align 8
  call void @_ZNSt12_Vector_baseIN4absl12lts_2024072212AnyInvocableIKFvRN9grpc_core19ChannelStackBuilderEEEESaIS7_EEC2Ev(ptr noundef nonnull align 8 dereferenceable(24) %3) #3
  ret void
}

; Function Attrs: mustprogress nounwind uwtable
define linkonce_odr void @_ZNSt6vectorIN9grpc_core11ChannelInit6FilterESaIS2_EEC2Ev(ptr noundef nonnull align 8 dereferenceable(24) %0) unnamed_addr #6 comdat align 2 {
  %2 = alloca ptr, align 8
  store ptr %0, ptr %2, align 8, !tbaa !111
  %3 = load ptr, ptr %2, align 8
  call void @_ZNSt12_Vector_baseIN9grpc_core11ChannelInit6FilterESaIS2_EEC2Ev(ptr noundef nonnull align 8 dereferenceable(24) %3) #3
  ret void
}

; Function Attrs: inlinehint mustprogress nounwind uwtable
define linkonce_odr void @_ZN9grpc_core11ChannelInit11StackConfigC2Ev(ptr noundef nonnull align 8 dereferenceable(72) %0) unnamed_addr #8 comdat align 2 {
  %2 = alloca ptr, align 8
  store ptr %0, ptr %2, align 8, !tbaa !221
  %3 = load ptr, ptr %2, align 8
  %4 = getelementptr inbounds nuw %"struct.grpc_core::ChannelInit::StackConfig", ptr %3, i32 0, i32 0
  call void @_ZNSt6vectorIN9grpc_core11ChannelInit6FilterESaIS2_EEC2Ev(ptr noundef nonnull align 8 dereferenceable(24) %4) #3
  %5 = getelementptr inbounds nuw %"struct.grpc_core::ChannelInit::StackConfig", ptr %3, i32 0, i32 1
  call void @_ZNSt6vectorIN9grpc_core11ChannelInit6FilterESaIS2_EEC2Ev(ptr noundef nonnull align 8 dereferenceable(24) %5) #3
  %6 = getelementptr inbounds nuw %"struct.grpc_core::ChannelInit::StackConfig", ptr %3, i32 0, i32 2
  call void @_ZNSt6vectorIN4absl12lts_2024072212AnyInvocableIKFvRN9grpc_core19ChannelStackBuilderEEEESaIS7_EEC2Ev(ptr noundef nonnull align 8 dereferenceable(24) %6) #3
  ret void
}

; Function Attrs: inlinehint mustprogress nounwind uwtable
define linkonce_odr void @_ZN9grpc_core11ChannelInitD2Ev(ptr noundef nonnull align 8 dereferenceable(432) %0) unnamed_addr #8 comdat align 2 {
  %2 = alloca ptr, align 8
  store ptr %0, ptr %2, align 8, !tbaa !219
  %3 = load ptr, ptr %2, align 8
  %4 = getelementptr inbounds nuw %"class.grpc_core::ChannelInit", ptr %3, i32 0, i32 0
  %5 = getelementptr inbounds [6 x %"struct.grpc_core::ChannelInit::StackConfig"], ptr %4, i32 0, i32 0
  %6 = getelementptr inbounds %"struct.grpc_core::ChannelInit::StackConfig", ptr %5, i64 6
  br label %7

7:                                                ; preds = %7, %1
  %8 = phi ptr [ %6, %1 ], [ %9, %7 ]
  %9 = getelementptr inbounds %"struct.grpc_core::ChannelInit::StackConfig", ptr %8, i64 -1
  call void @_ZN9grpc_core11ChannelInit11StackConfigD2Ev(ptr noundef nonnull align 8 dereferenceable(72) %9) #3
  %10 = icmp eq ptr %9, %5
  br i1 %10, label %11, label %7

11:                                               ; preds = %7
  ret void
}

; Function Attrs: inlinehint mustprogress nounwind uwtable
define linkonce_odr void @_ZN9grpc_core11ChannelInitC2Ev(ptr noundef nonnull align 8 dereferenceable(432) %0) unnamed_addr #8 comdat align 2 {
  %2 = alloca ptr, align 8
  store ptr %0, ptr %2, align 8, !tbaa !219
  %3 = load ptr, ptr %2, align 8
  %4 = getelementptr inbounds nuw %"class.grpc_core::ChannelInit", ptr %3, i32 0, i32 0
  %5 = getelementptr inbounds [6 x %"struct.grpc_core::ChannelInit::StackConfig"], ptr %4, i32 0, i32 0
  %6 = getelementptr inbounds %"struct.grpc_core::ChannelInit::StackConfig", ptr %5, i64 6
  br label %7

7:                                                ; preds = %7, %1
  %8 = phi ptr [ %5, %1 ], [ %9, %7 ]
  call void @_ZN9grpc_core11ChannelInit11StackConfigC2Ev(ptr noundef nonnull align 8 dereferenceable(72) %8) #3
  %9 = getelementptr inbounds %"struct.grpc_core::ChannelInit::StackConfig", ptr %8, i64 1
  %10 = icmp eq ptr %9, %6
  br i1 %10, label %11, label %7

11:                                               ; preds = %7
  ret void
}

; Function Attrs: mustprogress uwtable
define void @_ZN9grpc_core11ChannelInit7Builder5BuildEv(ptr dead_on_unwind noalias writable sret(%"class.grpc_core::ChannelInit") align 8 %0, ptr noundef nonnull align 16 dereferenceable(528) %1) #4 align 2 personality ptr @__gxx_personality_v0 {
  %3 = alloca ptr, align 8
  %4 = alloca ptr, align 8
  %5 = alloca i1, align 1
  %6 = alloca i32, align 4
  %7 = alloca %"struct.grpc_core::ChannelInit::StackConfig", align 8
  %8 = alloca ptr, align 8
  %9 = alloca i32, align 4
  store ptr %0, ptr %3, align 8
  store ptr %1, ptr %4, align 8, !tbaa !45
  %10 = load ptr, ptr %4, align 8
  store i1 false, ptr %5, align 1
  call void @_ZN9grpc_core11ChannelInitC2Ev(ptr noundef nonnull align 8 dereferenceable(432) %0) #3
  call void @llvm.lifetime.start.p0(i64 4, ptr %6) #3
  store i32 0, ptr %6, align 4, !tbaa !65
  br label %11

11:                                               ; preds = %32, %2
  %12 = load i32, ptr %6, align 4, !tbaa !65
  %13 = icmp slt i32 %12, 6
  br i1 %13, label %15, label %14

14:                                               ; preds = %11
  call void @llvm.lifetime.end.p0(i64 4, ptr %6) #3
  br label %39

15:                                               ; preds = %11
  call void @llvm.lifetime.start.p0(i64 72, ptr %7) #3
  %16 = getelementptr inbounds nuw %"class.grpc_core::ChannelInit::Builder", ptr %10, i32 0, i32 0
  %17 = load i32, ptr %6, align 4, !tbaa !65
  %18 = sext i32 %17 to i64
  %19 = getelementptr inbounds [6 x %"class.std::vector.9"], ptr %16, i64 0, i64 %18
  %20 = getelementptr inbounds nuw %"class.grpc_core::ChannelInit::Builder", ptr %10, i32 0, i32 1
  %21 = load i32, ptr %6, align 4, !tbaa !65
  %22 = sext i32 %21 to i64
  %23 = getelementptr inbounds [6 x [2 x %"class.absl::lts_20240722::AnyInvocable.14"]], ptr %20, i64 0, i64 %22
  %24 = getelementptr inbounds [2 x %"class.absl::lts_20240722::AnyInvocable.14"], ptr %23, i64 0, i64 0
  %25 = load i32, ptr %6, align 4, !tbaa !65
  invoke void @_ZN9grpc_core11ChannelInit16BuildStackConfigERKSt6vectorISt10unique_ptrINS0_18FilterRegistrationESt14default_deleteIS3_EESaIS6_EEPN4absl12lts_2024072212AnyInvocableIKFvRNS_19ChannelStackBuilderEEEE23grpc_channel_stack_type(ptr dead_on_unwind writable sret(%"struct.grpc_core::ChannelInit::StackConfig") align 8 %7, ptr noundef nonnull align 8 dereferenceable(24) %19, ptr noundef %24, i32 noundef %25)
          to label %26 unwind label %35

26:                                               ; preds = %15
  %27 = getelementptr inbounds nuw %"class.grpc_core::ChannelInit", ptr %0, i32 0, i32 0
  %28 = load i32, ptr %6, align 4, !tbaa !65
  %29 = sext i32 %28 to i64
  %30 = getelementptr inbounds [6 x %"struct.grpc_core::ChannelInit::StackConfig"], ptr %27, i64 0, i64 %29
  %31 = call noundef nonnull align 8 dereferenceable(72) ptr @_ZN9grpc_core11ChannelInit11StackConfigaSEOS1_(ptr noundef nonnull align 8 dereferenceable(72) %30, ptr noundef nonnull align 8 dereferenceable(72) %7) #3
  call void @_ZN9grpc_core11ChannelInit11StackConfigD2Ev(ptr noundef nonnull align 8 dereferenceable(72) %7) #3
  call void @llvm.lifetime.end.p0(i64 72, ptr %7) #3
  br label %32

32:                                               ; preds = %26
  %33 = load i32, ptr %6, align 4, !tbaa !65
  %34 = add nsw i32 %33, 1
  store i32 %34, ptr %6, align 4, !tbaa !65
  br label %11, !llvm.loop !218

35:                                               ; preds = %15
  %36 = landingpad { ptr, i32 }
          cleanup
  %37 = extractvalue { ptr, i32 } %36, 0
  store ptr %37, ptr %8, align 8
  %38 = extractvalue { ptr, i32 } %36, 1
  store i32 %38, ptr %9, align 4
  call void @llvm.lifetime.end.p0(i64 72, ptr %7) #3
  call void @llvm.lifetime.end.p0(i64 4, ptr %6) #3
  call void @_ZN9grpc_core11ChannelInitD2Ev(ptr noundef nonnull align 8 dereferenceable(432) %0) #3
  br label %43

39:                                               ; preds = %14
  store i1 true, ptr %5, align 1
  %40 = load i1, ptr %5, align 1
  br i1 %40, label %42, label %41

41:                                               ; preds = %39
  call void @_ZN9grpc_core11ChannelInitD2Ev(ptr noundef nonnull align 8 dereferenceable(432) %0) #3
  br label %42

42:                                               ; preds = %41, %39
  ret void

43:                                               ; preds = %35
  %44 = load ptr, ptr %8, align 8
  %45 = load i32, ptr %9, align 4
  %46 = insertvalue { ptr, i32 } poison, ptr %44, 0
  %47 = insertvalue { ptr, i32 } %46, i32 %45, 1
  resume { ptr, i32 } %47
}