; Function Attrs: mustprogress uwtable
define void @_ZN9grpc_core11ChannelInit7Builder5BuildEv(ptr dead_on_unwind noalias writable sret(%"class.grpc_core::ChannelInit") align 8 initializes((0, 432)) %0, ptr noundef nonnull align 16 dereferenceable(528) %1) local_unnamed_addr #3 align 2 personality ptr @__gxx_personality_v0 {
  %3 = alloca %"struct.grpc_core::ChannelInit::StackConfig", align 8
  tail call void @llvm.memset.p0.i64(ptr noundef nonnull align 8 dereferenceable(432) %0, i8 0, i64 432, i1 false)
  %4 = getelementptr inbounds nuw i8, ptr %1, i64 144
  br label %5

5:                                                ; preds = %2, %9
  %indvars.iv = phi i64 [ 0, %2 ], [ %indvars.iv.next, %9 ]
  call void @llvm.lifetime.start.p0(i64 72, ptr nonnull %3) #34
  %6 = getelementptr inbounds nuw [6 x %"class.std::vector.9"], ptr %1, i64 0, i64 %indvars.iv
  %7 = getelementptr inbounds nuw [6 x [2 x %"class.absl::lts_20240722::AnyInvocable.14"]], ptr %4, i64 0, i64 %indvars.iv
  %8 = trunc nuw nsw i64 %indvars.iv to i32
  invoke void @_ZN9grpc_core11ChannelInit16BuildStackConfigERKSt6vectorISt10unique_ptrINS0_18FilterRegistrationESt14default_deleteIS3_EESaIS6_EEPN4absl12lts_2024072212AnyInvocableIKFvRNS_19ChannelStackBuilderEEEE23grpc_channel_stack_type(ptr dead_on_unwind nonnull writable sret(%"struct.grpc_core::ChannelInit::StackConfig") align 8 %3, ptr noundef nonnull align 8 dereferenceable(24) %6, ptr noundef nonnull %7, i32 noundef %8)
          to label %9 unwind label %12

9:                                                ; preds = %5
  %10 = getelementptr inbounds nuw [6 x %"struct.grpc_core::ChannelInit::StackConfig"], ptr %0, i64 0, i64 %indvars.iv
  %11 = call noundef nonnull align 8 dereferenceable(72) ptr @_ZN9grpc_core11ChannelInit11StackConfigaSEOS1_(ptr noundef nonnull align 8 dereferenceable(72) %10, ptr noundef nonnull align 8 dereferenceable(72) %3) #34
  call void @_ZN9grpc_core11ChannelInit11StackConfigD2Ev(ptr noundef nonnull align 8 dereferenceable(72) %3) #34
  call void @llvm.lifetime.end.p0(i64 72, ptr nonnull %3) #34
  %indvars.iv.next = add nuw nsw i64 %indvars.iv, 1
  %exitcond.not = icmp eq i64 %indvars.iv.next, 6
  br i1 %exitcond.not, label %19, label %5, !llvm.loop !263

12:                                               ; preds = %5
  %13 = landingpad { ptr, i32 }
          cleanup
  call void @llvm.lifetime.end.p0(i64 72, ptr nonnull %3) #34
  %14 = getelementptr inbounds nuw i8, ptr %0, i64 432
  br label %15

15:                                               ; preds = %15, %12
  %16 = phi ptr [ %14, %12 ], [ %17, %15 ]
  %17 = getelementptr inbounds i8, ptr %16, i64 -72
  call void @_ZN9grpc_core11ChannelInit11StackConfigD2Ev(ptr noundef nonnull align 8 dereferenceable(72) %17) #34
  %18 = icmp eq ptr %17, %0
  br i1 %18, label %_ZN9grpc_core11ChannelInitD2Ev.exit, label %15

_ZN9grpc_core11ChannelInitD2Ev.exit:              ; preds = %15
  resume { ptr, i32 } %13

19:                                               ; preds = %9
  ret void
}